target datalayout = "e-m:e-p270:32:32-p271:32:32-p272:64:64-i64:64-i128:128-f80:128-n8:16:32:64-S128"
target triple = "x86_64-pc-linux-gnu"

%struct.FunctionCallInfoBaseData = type { ptr, ptr, ptr, i32, i8, i16, [0 x %struct.NullableDatum] }
%struct.NullableDatum = type { i64, i8 }

@.str.5 = private unnamed_addr constant [5 x i8] c"-%lu\00", align 1
@.str.6 = private unnamed_addr constant [4 x i8] c"%lu\00", align 1

; Function Attrs: inlinehint nounwind uwtable
define internal i64 @PointerGetDatum(ptr noundef %0) #4 {
  %2 = alloca ptr, align 8
  store ptr %0, ptr %2, align 8
  %3 = load ptr, ptr %2, align 8
  %4 = ptrtoint ptr %3 to i64
  ret i64 %4
}

; Function Attrs: inlinehint nounwind uwtable
define internal i64 @DatumGetInt64(i64 noundef %0) #4 {
  %2 = alloca i64, align 8
  store i64 %0, ptr %2, align 8
  %3 = load i64, ptr %2, align 8
  ret i64 %3
}

; Function Attrs: inlinehint nounwind uwtable
define internal i64 @Int32GetDatum(i32 noundef %0) #4 {
  %2 = alloca i32, align 4
  store i32 %0, ptr %2, align 4
  %3 = load i32, ptr %2, align 4
  %4 = sext i32 %3 to i64
  ret i64 %4
}

; Function Attrs: inlinehint nounwind uwtable
define internal i64 @ObjectIdGetDatum(i32 noundef %0) #4 {
  %2 = alloca i32, align 4
  store i32 %0, ptr %2, align 4
  %3 = load i32, ptr %2, align 4
  %4 = zext i32 %3 to i64
  ret i64 %4
}

; Function Attrs: inlinehint nounwind uwtable
define internal i64 @CStringGetDatum(ptr noundef %0) #4 {
  %2 = alloca ptr, align 8
  store ptr %0, ptr %2, align 8
  %3 = load ptr, ptr %2, align 8
  %4 = call i64 @PointerGetDatum(ptr noundef %3)
  ret i64 %4
}

; Function Attrs: inlinehint nounwind uwtable
define internal i64 @DatumGetLSN(i64 noundef %0) #4 {
  %2 = alloca i64, align 8
  store i64 %0, ptr %2, align 8
  %3 = load i64, ptr %2, align 8
  %4 = call i64 @DatumGetInt64(i64 noundef %3)
  ret i64 %4
}

; Function Attrs: nounwind uwtable
define dso_local i64 @pg_lsn_mi(ptr noundef %0) #0 {
  %2 = alloca ptr, align 8
  %3 = alloca i64, align 8
  %4 = alloca i64, align 8
  %5 = alloca [256 x i8], align 16
  %6 = alloca i64, align 8
  store ptr %0, ptr %2, align 8
  call void @llvm.lifetime.start.p0(i64 8, ptr %3) #9
  %7 = load ptr, ptr %2, align 8
  %8 = getelementptr inbounds nuw %struct.FunctionCallInfoBaseData, ptr %7, i32 0, i32 6
  %9 = getelementptr inbounds [0 x %struct.NullableDatum], ptr %8, i64 0, i64 0
  %10 = getelementptr inbounds nuw %struct.NullableDatum, ptr %9, i32 0, i32 0
  %11 = load i64, ptr %10, align 8
  %12 = call i64 @DatumGetLSN(i64 noundef %11)
  store i64 %12, ptr %3, align 8
  call void @llvm.lifetime.start.p0(i64 8, ptr %4) #9
  %13 = load ptr, ptr %2, align 8
  %14 = getelementptr inbounds nuw %struct.FunctionCallInfoBaseData, ptr %13, i32 0, i32 6
  %15 = getelementptr inbounds [0 x %struct.NullableDatum], ptr %14, i64 0, i64 1
  %16 = getelementptr inbounds nuw %struct.NullableDatum, ptr %15, i32 0, i32 0
  %17 = load i64, ptr %16, align 8
  %18 = call i64 @DatumGetLSN(i64 noundef %17)
  store i64 %18, ptr %4, align 8
  call void @llvm.lifetime.start.p0(i64 256, ptr %5) #9
  call void @llvm.lifetime.start.p0(i64 8, ptr %6) #9
  %19 = load i64, ptr %3, align 8
  %20 = load i64, ptr %4, align 8
  %21 = icmp ult i64 %19, %20
  br i1 %21, label %22, label %28

22:                                               ; preds = %1
  %23 = getelementptr inbounds [256 x i8], ptr %5, i64 0, i64 0
  %24 = load i64, ptr %4, align 8
  %25 = load i64, ptr %3, align 8
  %26 = sub i64 %24, %25
  %27 = call i32 (ptr, i64, ptr, ...) @pg_snprintf(ptr noundef %23, i64 noundef 256, ptr noundef @.str.5, i64 noundef %26)
  br label %34

28:                                               ; preds = %1
  %29 = getelementptr inbounds [256 x i8], ptr %5, i64 0, i64 0
  %30 = load i64, ptr %3, align 8
  %31 = load i64, ptr %4, align 8
  %32 = sub i64 %30, %31
  %33 = call i32 (ptr, i64, ptr, ...) @pg_snprintf(ptr noundef %29, i64 noundef 256, ptr noundef @.str.6, i64 noundef %32)
  br label %34

34:                                               ; preds = %28, %22
  %35 = getelementptr inbounds [256 x i8], ptr %5, i64 0, i64 0
  %36 = call i64 @CStringGetDatum(ptr noundef %35)
  %37 = call i64 @ObjectIdGetDatum(i32 noundef 0)
  %38 = call i64 @Int32GetDatum(i32 noundef -1)
  %39 = call i64 @DirectFunctionCall3Coll(ptr noundef @numeric_in, i32 noundef 0, i64 noundef %36, i64 noundef %37, i64 noundef %38)
  store i64 %39, ptr %6, align 8
  %40 = load i64, ptr %6, align 8
  call void @llvm.lifetime.end.p0(i64 8, ptr %6) #9
  call void @llvm.lifetime.end.p0(i64 256, ptr %5) #9
  call void @llvm.lifetime.end.p0(i64 8, ptr %4) #9
  call void @llvm.lifetime.end.p0(i64 8, ptr %3) #9
  ret i64 %40
}