; Function Attrs: nounwind uwtable
define dso_local i64 @pg_lsn_mi(ptr noundef readonly captures(none) %0) local_unnamed_addr #4 {
  %2 = alloca [256 x i8], align 16
  %3 = getelementptr inbounds nuw i8, ptr %0, i64 32
  %4 = load i64, ptr %3, align 8
  %5 = getelementptr inbounds nuw i8, ptr %0, i64 48
  %6 = load i64, ptr %5, align 8
  call void @llvm.lifetime.start.p0(i64 256, ptr nonnull %2) #13
  %7 = icmp ult i64 %4, %6
  br i1 %7, label %8, label %11

8:                                                ; preds = %1
  %9 = sub nuw i64 %6, %4
  %10 = call i32 (ptr, i64, ptr, ...) @pg_snprintf(ptr noundef nonnull %2, i64 noundef 256, ptr noundef nonnull @.str.5, i64 noundef %9) #13
  br label %14

11:                                               ; preds = %1
  %12 = sub nuw i64 %4, %6
  %13 = call i32 (ptr, i64, ptr, ...) @pg_snprintf(ptr noundef nonnull %2, i64 noundef 256, ptr noundef nonnull @.str.6, i64 noundef %12) #13
  br label %14

14:                                               ; preds = %11, %8
  %15 = ptrtoint ptr %2 to i64
  %16 = call i64 @DirectFunctionCall3Coll(ptr noundef nonnull @numeric_in, i32 noundef 0, i64 noundef %15, i64 noundef 0, i64 noundef -1) #13
  call void @llvm.lifetime.end.p0(i64 256, ptr nonnull %2) #13
  ret i64 %16
}